; Function Attrs: mustprogress nofree nounwind willreturn memory(read) uwtable
define dso_local noundef zeroext i1 @_ZNK4llvm3EVT22isExtended128BitVectorEv(ptr nocapture noundef nonnull readonly align 8 dereferenceable(16) %0) local_unnamed_addr #4 align 2 {
  %2 = getelementptr inbounds nuw i8, ptr %0, i64 8
  %3 = load ptr, ptr %2, align 8
  %4 = getelementptr inbounds nuw i8, ptr %3, i64 8
  %5 = load i32, ptr %4, align 8
  %6 = and i32 %5, 255
  %7 = add nsw i32 %6, -17
  %spec.select.i.i = icmp ult i32 %7, 2
  br i1 %spec.select.i.i, label %_ZNK4llvm3EVT21getExtendedSizeInBitsEv.exit, label %_ZNK4llvm7details23FixedOrScalableQuantityINS_8TypeSizeEmEeqERKS3_.exit

_ZNK4llvm3EVT21getExtendedSizeInBitsEv.exit:      ; preds = %1
  %8 = tail call { i64, i8 } @_ZNK4llvm4Type22getPrimitiveSizeInBitsEv(ptr noundef nonnull align 8 dereferenceable(24) %3) #14
  %.fca.0.extract1 = extractvalue { i64, i8 } %8, 0
  %9 = icmp eq i64 %.fca.0.extract1, 128
  br i1 %9, label %10, label %_ZNK4llvm7details23FixedOrScalableQuantityINS_8TypeSizeEmEeqERKS3_.exit

10:                                               ; preds = %_ZNK4llvm3EVT21getExtendedSizeInBitsEv.exit
  %.fca.1.extract2 = extractvalue { i64, i8 } %8, 1
  %11 = and i8 %.fca.1.extract2, 1
  %12 = icmp eq i8 %11, 0
  br label %_ZNK4llvm7details23FixedOrScalableQuantityINS_8TypeSizeEmEeqERKS3_.exit

_ZNK4llvm7details23FixedOrScalableQuantityINS_8TypeSizeEmEeqERKS3_.exit: ; preds = %10, %_ZNK4llvm3EVT21getExtendedSizeInBitsEv.exit, %1
  %13 = phi i1 [ false, %1 ], [ false, %_ZNK4llvm3EVT21getExtendedSizeInBitsEv.exit ], [ %12, %10 ]
  ret i1 %13
}